; Function Attrs: nounwind uwtable
define void @assert_true(i32 noundef %0, ptr noundef %1, i32 noundef %2) local_unnamed_addr #6 {
  %4 = icmp eq i32 %0, 0
  br i1 %4, label %5, label %6

5:                                                ; preds = %3
  tail call void (ptr, ...) @CTEST_ERR(ptr noundef nonnull @.str.15, ptr noundef %1, i32 noundef %2)
  unreachable

6:                                                ; preds = %3
  ret void
}